target datalayout = "e-m:e-p270:32:32-p271:32:32-p272:64:64-i64:64-i128:128-f80:128-n8:16:32:64-S128"
target triple = "x86_64-pc-linux-gnu"

%struct.mbedtls_psa_hash_operation_t = type { i32, %union.anon }
%union.anon = type { %struct.mbedtls_sha512_context }
%struct.mbedtls_sha512_context = type { [2 x i64], [8 x i64], [128 x i8], i32 }

; Function Attrs: nounwind uwtable
define hidden i32 @mbedtls_psa_hash_compute(i32 noundef %0, ptr noundef %1, i64 noundef %2, ptr noundef %3, i64 noundef %4, ptr noundef %5) #0 {
  %7 = alloca i32, align 4
  %8 = alloca i32, align 4
  %9 = alloca ptr, align 8
  %10 = alloca i64, align 8
  %11 = alloca ptr, align 8
  %12 = alloca i64, align 8
  %13 = alloca ptr, align 8
  %14 = alloca %struct.mbedtls_psa_hash_operation_t, align 8
  %15 = alloca i32, align 4
  %16 = alloca i32, align 4
  %17 = alloca i32, align 4
  store i32 %0, ptr %8, align 4, !tbaa !10
  store ptr %1, ptr %9, align 8, !tbaa !11
  store i64 %2, ptr %10, align 8, !tbaa !13
  store ptr %3, ptr %11, align 8, !tbaa !11
  store i64 %4, ptr %12, align 8, !tbaa !13
  store ptr %5, ptr %13, align 8, !tbaa !15
  call void @llvm.lifetime.start.p0(i64 224, ptr %14) #4
  call void @llvm.memset.p0.i64(ptr align 8 %14, i8 0, i64 224, i1 false)
  call void @llvm.lifetime.start.p0(i64 4, ptr %15) #4
  store i32 -151, ptr %15, align 4, !tbaa !10
  call void @llvm.lifetime.start.p0(i64 4, ptr %16) #4
  store i32 -151, ptr %16, align 4, !tbaa !10
  %18 = load i64, ptr %12, align 8, !tbaa !13
  %19 = load ptr, ptr %13, align 8, !tbaa !15
  store i64 %18, ptr %19, align 8, !tbaa !13
  %20 = load i32, ptr %8, align 4, !tbaa !10
  %21 = call i32 @mbedtls_psa_hash_setup(ptr noundef %14, i32 noundef %20)
  store i32 %21, ptr %15, align 4, !tbaa !10
  %22 = load i32, ptr %15, align 4, !tbaa !10
  %23 = icmp ne i32 %22, 0
  br i1 %23, label %24, label %25

24:                                               ; preds = %6
  br label %41

25:                                               ; preds = %6
  %26 = load ptr, ptr %9, align 8, !tbaa !11
  %27 = load i64, ptr %10, align 8, !tbaa !13
  %28 = call i32 @mbedtls_psa_hash_update(ptr noundef %14, ptr noundef %26, i64 noundef %27)
  store i32 %28, ptr %15, align 4, !tbaa !10
  %29 = load i32, ptr %15, align 4, !tbaa !10
  %30 = icmp ne i32 %29, 0
  br i1 %30, label %31, label %32

31:                                               ; preds = %25
  br label %41

32:                                               ; preds = %25
  %33 = load ptr, ptr %11, align 8, !tbaa !11
  %34 = load i64, ptr %12, align 8, !tbaa !13
  %35 = load ptr, ptr %13, align 8, !tbaa !15
  %36 = call i32 @mbedtls_psa_hash_finish(ptr noundef %14, ptr noundef %33, i64 noundef %34, ptr noundef %35)
  store i32 %36, ptr %15, align 4, !tbaa !10
  %37 = load i32, ptr %15, align 4, !tbaa !10
  %38 = icmp ne i32 %37, 0
  br i1 %38, label %39, label %40

39:                                               ; preds = %32
  br label %41

40:                                               ; preds = %32
  br label %41

41:                                               ; preds = %40, %39, %31, %24
  %42 = call i32 @mbedtls_psa_hash_abort(ptr noundef %14)
  store i32 %42, ptr %16, align 4, !tbaa !10
  %43 = load i32, ptr %15, align 4, !tbaa !10
  %44 = icmp eq i32 %43, 0
  br i1 %44, label %45, label %47

45:                                               ; preds = %41
  %46 = load i32, ptr %16, align 4, !tbaa !10
  store i32 %46, ptr %7, align 4
  store i32 1, ptr %17, align 4
  br label %49

47:                                               ; preds = %41
  %48 = load i32, ptr %15, align 4, !tbaa !10
  store i32 %48, ptr %7, align 4
  store i32 1, ptr %17, align 4
  br label %49

49:                                               ; preds = %47, %45
  call void @llvm.lifetime.end.p0(i64 4, ptr %16) #4
  call void @llvm.lifetime.end.p0(i64 4, ptr %15) #4
  call void @llvm.lifetime.end.p0(i64 224, ptr %14) #4
  %50 = load i32, ptr %7, align 4
  ret i32 %50
}