; Function Attrs: nounwind uwtable
define hidden i32 @mbedtls_psa_hash_compute(i32 noundef %0, ptr noundef %1, i64 noundef %2, ptr noundef %3, i64 noundef %4, ptr noundef writeonly captures(none) initializes((0, 8)) %5) local_unnamed_addr #0 {
  %7 = alloca %struct.mbedtls_psa_hash_operation_t, align 8
  call void @llvm.lifetime.start.p0(i64 224, ptr nonnull %7) #4
  call void @llvm.memset.p0.i64(ptr noundef nonnull align 8 dereferenceable(224) %7, i8 0, i64 224, i1 false)
  store i64 %4, ptr %5, align 8, !tbaa !8
  %8 = call i32 @mbedtls_psa_hash_setup(ptr noundef nonnull %7, i32 noundef %0)
  %.not = icmp eq i32 %8, 0
  br i1 %.not, label %9, label %13

9:                                                ; preds = %6
  %10 = call i32 @mbedtls_psa_hash_update(ptr noundef nonnull %7, ptr noundef %1, i64 noundef %2)
  %.not16 = icmp eq i32 %10, 0
  br i1 %.not16, label %11, label %13

11:                                               ; preds = %9
  %12 = call i32 @mbedtls_psa_hash_finish(ptr noundef nonnull %7, ptr noundef %3, i64 noundef %4, ptr noundef nonnull %5)
  br label %13

13:                                               ; preds = %11, %9, %6
  %.0 = phi i32 [ %8, %6 ], [ %10, %9 ], [ %12, %11 ]
  %14 = call i32 @mbedtls_psa_hash_abort(ptr noundef nonnull %7)
  %15 = icmp eq i32 %.0, 0
  %..0 = select i1 %15, i32 %14, i32 %.0
  call void @llvm.lifetime.end.p0(i64 224, ptr nonnull %7) #4
  ret i32 %..0
}